; Function Attrs: mustprogress uwtable
define noundef i64 @_ZN7Imf_3_422calculateBytesPerPixelERKNS_6HeaderE(ptr noundef nonnull align 8 dereferenceable(49) %0) local_unnamed_addr #3 personality ptr @__gxx_personality_v0 {
  %2 = tail call noundef nonnull align 8 dereferenceable(48) ptr @_ZNK7Imf_3_46Header8channelsEv(ptr noundef nonnull align 8 dereferenceable(49) %0)
  %3 = tail call ptr @_ZNK7Imf_3_411ChannelList5beginEv(ptr noundef nonnull align 8 dereferenceable(48) %2)
  %4 = tail call ptr @_ZNK7Imf_3_411ChannelList3endEv(ptr noundef nonnull align 8 dereferenceable(48) %2)
  %.not7 = icmp eq ptr %3, %4
  br i1 %.not7, label %._crit_edge, label %.lr.ph

._crit_edge:                                      ; preds = %.lr.ph, %1
  %.0.lcssa = phi i64 [ 0, %1 ], [ %9, %.lr.ph ]
  ret i64 %.0.lcssa

.lr.ph:                                           ; preds = %1, %.lr.ph
  %.09 = phi i64 [ %9, %.lr.ph ], [ 0, %1 ]
  %.sroa.04.08 = phi ptr [ %10, %.lr.ph ], [ %3, %1 ]
  %5 = getelementptr inbounds nuw i8, ptr %.sroa.04.08, i64 288
  %6 = load i32, ptr %5, align 4, !tbaa !15
  %7 = tail call noundef i32 @_ZN7Imf_3_413pixelTypeSizeENS_9PixelTypeE(i32 noundef %6)
  %8 = sext i32 %7 to i64
  %9 = add i64 %.09, %8
  %10 = tail call noundef ptr @_ZSt18_Rb_tree_incrementPKSt18_Rb_tree_node_base(ptr noundef %.sroa.04.08) #15
  %11 = tail call ptr @_ZNK7Imf_3_411ChannelList3endEv(ptr noundef nonnull align 8 dereferenceable(48) %2)
  %.not = icmp eq ptr %10, %11
  br i1 %.not, label %._crit_edge, label %.lr.ph, !llvm.loop !19
}